target datalayout = "e-m:e-p270:32:32-p271:32:32-p272:64:64-i64:64-i128:128-f80:128-n8:16:32:64-S128"
target triple = "x86_64-pc-linux-gnu"

%"class.llvm::iterator_range.1993" = type { ptr, ptr }
%"class.(anonymous namespace)::UnqualUsingEntry" = type { ptr, ptr }

; Function Attrs: mustprogress nounwind uwtable
define internal noundef ptr @_ZNK12_GLOBAL__N_116UnqualUsingEntry21getNominatedNamespaceEv(ptr noundef nonnull align 8 dereferenceable(16) %0) #0 align 2 {
  %2 = alloca ptr, align 8
  store ptr %0, ptr %2, align 8
  %3 = load ptr, ptr %2, align 8
  %4 = getelementptr inbounds nuw %"class.(anonymous namespace)::UnqualUsingEntry", ptr %3, i32 0, i32 0
  %5 = load ptr, ptr %4, align 8
  ret ptr %5
}

; Function Attrs: mustprogress nounwind uwtable
define internal noundef ptr @_ZNK4llvm14iterator_rangeIPKN12_GLOBAL__N_116UnqualUsingEntryEE3endEv(ptr noundef nonnull align 8 dereferenceable(16) %0) #0 align 2 {
  %2 = alloca ptr, align 8
  store ptr %0, ptr %2, align 8
  %3 = load ptr, ptr %2, align 8
  %4 = getelementptr inbounds nuw %"class.llvm::iterator_range.1993", ptr %3, i32 0, i32 1
  %5 = load ptr, ptr %4, align 8
  ret ptr %5
}

; Function Attrs: mustprogress nounwind uwtable
define internal noundef ptr @_ZNK4llvm14iterator_rangeIPKN12_GLOBAL__N_116UnqualUsingEntryEE5beginEv(ptr noundef nonnull align 8 dereferenceable(16) %0) #0 align 2 {
  %2 = alloca ptr, align 8
  store ptr %0, ptr %2, align 8
  %3 = load ptr, ptr %2, align 8
  %4 = getelementptr inbounds nuw %"class.llvm::iterator_range.1993", ptr %3, i32 0, i32 0
  %5 = load ptr, ptr %4, align 8
  ret ptr %5
}

; Function Attrs: mustprogress nounwind uwtable
define internal noundef zeroext i1 @_ZL18CppNamespaceLookupRN5clang4SemaERNS_12LookupResultERNS_10ASTContextEPKNS_11DeclContextERN12_GLOBAL__N_123UnqualUsingDirectiveSetE(ptr noundef nonnull align 8 dereferenceable(17560) %0, ptr noundef nonnull align 8 dereferenceable(168) %1, ptr noundef nonnull align 8 dereferenceable(23096) %2, ptr noundef %3, ptr noundef nonnull align 8 dereferenceable(248) %4) #0 {
  %6 = alloca ptr, align 8
  %7 = alloca ptr, align 8
  %8 = alloca ptr, align 8
  %9 = alloca ptr, align 8
  %10 = alloca ptr, align 8
  %11 = alloca i8, align 1
  %12 = alloca ptr, align 8
  %13 = alloca %"class.llvm::iterator_range.1993", align 8
  %14 = alloca ptr, align 8
  %15 = alloca ptr, align 8
  %16 = alloca ptr, align 8
  store ptr %0, ptr %6, align 8
  store ptr %1, ptr %7, align 8
  store ptr %2, ptr %8, align 8
  store ptr %3, ptr %9, align 8
  store ptr %4, ptr %10, align 8
  %17 = load ptr, ptr %6, align 8
  %18 = load ptr, ptr %7, align 8
  %19 = load ptr, ptr %9, align 8
  %20 = call noundef zeroext i1 @_ZL12LookupDirectRN5clang4SemaERNS_12LookupResultEPKNS_11DeclContextE(ptr noundef nonnull align 8 dereferenceable(17560) %17, ptr noundef nonnull align 8 dereferenceable(168) %18, ptr noundef %19)
  %21 = zext i1 %20 to i8
  store i8 %21, ptr %11, align 1
  %22 = load ptr, ptr %10, align 8
  %23 = load ptr, ptr %9, align 8
  %24 = call { ptr, ptr } @_ZNK12_GLOBAL__N_123UnqualUsingDirectiveSet16getNamespacesForEPKN5clang11DeclContextE(ptr noundef nonnull align 8 dereferenceable(248) %22, ptr noundef %23)
  %25 = getelementptr inbounds nuw { ptr, ptr }, ptr %13, i32 0, i32 0
  %26 = extractvalue { ptr, ptr } %24, 0
  store ptr %26, ptr %25, align 8
  %27 = getelementptr inbounds nuw { ptr, ptr }, ptr %13, i32 0, i32 1
  %28 = extractvalue { ptr, ptr } %24, 1
  store ptr %28, ptr %27, align 8
  store ptr %13, ptr %12, align 8
  %29 = load ptr, ptr %12, align 8
  %30 = call noundef ptr @_ZNK4llvm14iterator_rangeIPKN12_GLOBAL__N_116UnqualUsingEntryEE5beginEv(ptr noundef nonnull align 8 dereferenceable(16) %29)
  store ptr %30, ptr %14, align 8
  %31 = load ptr, ptr %12, align 8
  %32 = call noundef ptr @_ZNK4llvm14iterator_rangeIPKN12_GLOBAL__N_116UnqualUsingEntryEE3endEv(ptr noundef nonnull align 8 dereferenceable(16) %31)
  store ptr %32, ptr %15, align 8
  br label %33

33:                                               ; preds = %46, %5
  %34 = load ptr, ptr %14, align 8
  %35 = load ptr, ptr %15, align 8
  %36 = icmp ne ptr %34, %35
  br i1 %36, label %37, label %49

37:                                               ; preds = %33
  %38 = load ptr, ptr %14, align 8
  store ptr %38, ptr %16, align 8
  %39 = load ptr, ptr %6, align 8
  %40 = load ptr, ptr %7, align 8
  %41 = load ptr, ptr %16, align 8
  %42 = call noundef ptr @_ZNK12_GLOBAL__N_116UnqualUsingEntry21getNominatedNamespaceEv(ptr noundef nonnull align 8 dereferenceable(16) %41)
  %43 = call noundef zeroext i1 @_ZL12LookupDirectRN5clang4SemaERNS_12LookupResultEPKNS_11DeclContextE(ptr noundef nonnull align 8 dereferenceable(17560) %39, ptr noundef nonnull align 8 dereferenceable(168) %40, ptr noundef %42)
  br i1 %43, label %44, label %45

44:                                               ; preds = %37
  store i8 1, ptr %11, align 1
  br label %45

45:                                               ; preds = %44, %37
  br label %46

46:                                               ; preds = %45
  %47 = load ptr, ptr %14, align 8
  %48 = getelementptr inbounds %"class.(anonymous namespace)::UnqualUsingEntry", ptr %47, i32 1
  store ptr %48, ptr %14, align 8
  br label %33

49:                                               ; preds = %33
  %50 = load ptr, ptr %7, align 8
  call void @_ZN5clang12LookupResult11resolveKindEv(ptr noundef nonnull align 8 dereferenceable(168) %50)
  %51 = load i8, ptr %11, align 1
  %52 = trunc i8 %51 to i1
  ret i1 %52
}