; Function Attrs: mustprogress nounwind uwtable
define internal fastcc void @_ZL18CppNamespaceLookupRN5clang4SemaERNS_12LookupResultERNS_10ASTContextEPKNS_11DeclContextERN12_GLOBAL__N_123UnqualUsingDirectiveSetE(ptr noundef nonnull align 8 dereferenceable(17560) %0, ptr noundef nonnull align 8 dereferenceable(168) %1, ptr noundef nonnull %2, ptr noundef nonnull align 8 dereferenceable(248) %3) unnamed_addr #0 {
  %5 = tail call fastcc noundef zeroext i1 @_ZL12LookupDirectRN5clang4SemaERNS_12LookupResultEPKNS_11DeclContextE(ptr noundef nonnull align 8 dereferenceable(17560) %0, ptr noundef nonnull align 8 dereferenceable(168) %1, ptr noundef nonnull %2)
  %6 = tail call fastcc { ptr, ptr } @_ZNK12_GLOBAL__N_123UnqualUsingDirectiveSet16getNamespacesForEPKN5clang11DeclContextE(ptr noundef nonnull align 8 dereferenceable(248) %3, ptr noundef %2)
  %7 = extractvalue { ptr, ptr } %6, 0
  %8 = extractvalue { ptr, ptr } %6, 1
  %.not1 = icmp eq ptr %7, %8
  br i1 %.not1, label %._crit_edge, label %.lr.ph

.lr.ph:                                           ; preds = %4, %.lr.ph
  %.03 = phi i1 [ %spec.select, %.lr.ph ], [ %5, %4 ]
  %.0152 = phi ptr [ %10, %.lr.ph ], [ %7, %4 ]
  %.015.val = load ptr, ptr %.0152, align 8
  %9 = tail call fastcc noundef zeroext i1 @_ZL12LookupDirectRN5clang4SemaERNS_12LookupResultEPKNS_11DeclContextE(ptr noundef nonnull align 8 dereferenceable(17560) %0, ptr noundef nonnull align 8 dereferenceable(168) %1, ptr noundef %.015.val)
  %spec.select = select i1 %9, i1 true, i1 %.03
  %10 = getelementptr inbounds nuw i8, ptr %.0152, i64 16
  %.not = icmp eq ptr %10, %8
  br i1 %.not, label %._crit_edge, label %.lr.ph

._crit_edge:                                      ; preds = %.lr.ph, %4
  tail call void @_ZN5clang12LookupResult11resolveKindEv(ptr noundef nonnull align 8 dereferenceable(168) %1)
  ret void
}